ccopy_reg
_reconstructor
p1
(cmatplotlib.font_manager
FontManager
p2
c__builtin__
object
p3
NtRp4
(dp5
S'ttflist'
p6
(lp7
g1
(cmatplotlib.font_manager
FontEntry
p8
g3
NtRp9
(dp10
S'style'
p11
Vnormal
p12
sS'name'
p13
Vcmb10
p14
sS'weight'
p15
I400
sS'stretch'
p16
g12
sS'variant'
p17
g12
sS'fname'
p18
V/usr/share/matplotlib/mpl-data/fonts/ttf/cmb10.ttf
p19
sS'size'
p20
Vscalable
p21
sbag1
(g8
g3
NtRp22
(dp23
g11
g12
sg13
Vcmex10
p24
sg15
I400
sg16
g12
sg17
g12
sg18
V/usr/share/matplotlib/mpl-data/fonts/ttf/cmex10.ttf
p25
sg20
g21
sbag1
(g8
g3
NtRp26
(dp27
g11
Vitalic
p28
sg13
VSTIXNonUnicode
p29
sg15
I400
sg16
g12
sg17
g12
sg18
V/usr/share/matplotlib/mpl-data/fonts/ttf/STIXNonUniIta.ttf
p30
sg20
g21
sbag1
(g8
g3
NtRp31
(dp32
g11
g12
sg13
VSTIXSizeOneSym
p33
sg15
I400
sg16
g12
sg17
g12
sg18
V/usr/share/matplotlib/mpl-data/fonts/ttf/STIXSizOneSymReg.ttf
p34
sg20
g21
sbag1
(g8
g3
NtRp35
(dp36
g11
g12
sg13
VSTIXSizeThreeSym
p37
sg15
I400
sg16
g12
sg17
g12
sg18
V/usr/share/matplotlib/mpl-data/fonts/ttf/STIXSizThreeSymReg.ttf
p38
sg20
g21
sbag1
(g8
g3
NtRp39
(dp40
g11
g12
sg13
VSTIXSizeTwoSym
p41
sg15
I700
sg16
g12
sg17
g12
sg18
V/usr/share/matplotlib/mpl-data/fonts/ttf/STIXSizTwoSymBol.ttf
p42
sg20
g21
sbag1
(g8
g3
NtRp43
(dp44
g11
g12
sg13
Vcmtt10
p45
sg15
I400
sg16
g12
sg17
g12
sg18
V/usr/share/matplotlib/mpl-data/fonts/ttf/cmtt10.ttf
p46
sg20
g21
sbag1
(g8
g3
NtRp47
(dp48
g11
g12
sg13
VSTIXGeneral
p49
sg15
I400
sg16
g12
sg17
g12
sg18
V/usr/share/matplotlib/mpl-data/fonts/ttf/STIXGeneral.ttf
p50
sg20
g21
sbag1
(g8
g3
NtRp51
(dp52
g11
g12
sg13
VSTIXSizeThreeSym
p53
sg15
I700
sg16
g12
sg17
g12
sg18
V/usr/share/matplotlib/mpl-data/fonts/ttf/STIXSizThreeSymBol.ttf
p54
sg20
g21
sbag1
(g8
g3
NtRp55
(dp56
g11
g12
sg13
VSTIXNonUnicode
p57
sg15
I400
sg16
g12
sg17
g12
sg18
V/usr/share/matplotlib/mpl-data/fonts/ttf/STIXNonUni.ttf
p58
sg20
g21
sbag1
(g8
g3
NtRp59
(dp60
g11
g12
sg13
VSTIXSizeFiveSym
p61
sg15
I400
sg16
g12
sg17
g12
sg18
V/usr/share/matplotlib/mpl-data/fonts/ttf/STIXSizFiveSymReg.ttf
p62
sg20
g21
sbag1
(g8
g3
NtRp63
(dp64
g11
g12
sg13
VSTIXSizeOneSym
p65
sg15
I700
sg16
g12
sg17
g12
sg18
V/usr/share/matplotlib/mpl-data/fonts/ttf/STIXSizOneSymBol.ttf
p66
sg20
g21
sbag1
(g8
g3
NtRp67
(dp68
g11
g12
sg13
VSTIXGeneral
p69
sg15
I700
sg16
g12
sg17
g12
sg18
V/usr/share/matplotlib/mpl-data/fonts/ttf/STIXGeneralBol.ttf
p70
sg20
g21
sbag1
(g8
g3
NtRp71
(dp72
g11
g12
sg13
Vcmr10
p73
sg15
I400
sg16
g12
sg17
g12
sg18
V/usr/share/matplotlib/mpl-data/fonts/ttf/cmr10.ttf
p74
sg20
g21
sbag1
(g8
g3
NtRp75
(dp76
g11
g12
sg13
VSTIXSizeTwoSym
p77
sg15
I400
sg16
g12
sg17
g12
sg18
V/usr/share/matplotlib/mpl-data/fonts/ttf/STIXSizTwoSymReg.ttf
p78
sg20
g21
sbag1
(g8
g3
NtRp79
(dp80
g11
g12
sg13
VSTIXSizeFourSym
p81
sg15
I400
sg16
g12
sg17
g12
sg18
V/usr/share/matplotlib/mpl-data/fonts/ttf/STIXSizFourSymReg.ttf
p82
sg20
g21
sbag1
(g8
g3
NtRp83
(dp84
g11
g12
sg13
Vcmsy10
p85
sg15
I400
sg16
g12
sg17
g12
sg18
V/usr/share/matplotlib/mpl-data/fonts/ttf/cmsy10.ttf
p86
sg20
g21
sbag1
(g8
g3
NtRp87
(dp88
g11
g28
sg13
VSTIXNonUnicode
p89
sg15
I700
sg16
g12
sg17
g12
sg18
V/usr/share/matplotlib/mpl-data/fonts/ttf/STIXNonUniBolIta.ttf
p90
sg20
g21
sbag1
(g8
g3
NtRp91
(dp92
g11
g12
sg13
Vcmss10
p93
sg15
I400
sg16
g12
sg17
g12
sg18
V/usr/share/matplotlib/mpl-data/fonts/ttf/cmss10.ttf
p94
sg20
g21
sbag1
(g8
g3
NtRp95
(dp96
g11
g12
sg13
VSTIXSizeFourSym
p97
sg15
I700
sg16
g12
sg17
g12
sg18
V/usr/share/matplotlib/mpl-data/fonts/ttf/STIXSizFourSymBol.ttf
p98
sg20
g21
sbag1
(g8
g3
NtRp99
(dp100
g11
g28
sg13
VSTIXGeneral
p101
sg15
I400
sg16
g12
sg17
g12
sg18
V/usr/share/matplotlib/mpl-data/fonts/ttf/STIXGeneralItalic.ttf
p102
sg20
g21
sbag1
(g8
g3
NtRp103
(dp104
g11
g12
sg13
Vcmmi10
p105
sg15
I400
sg16
g12
sg17
g12
sg18
V/usr/share/matplotlib/mpl-data/fonts/ttf/cmmi10.ttf
p106
sg20
g21
sbag1
(g8
g3
NtRp107
(dp108
g11
g12
sg13
VSTIXNonUnicode
p109
sg15
I700
sg16
g12
sg17
g12
sg18
V/usr/share/matplotlib/mpl-data/fonts/ttf/STIXNonUniBol.ttf
p110
sg20
g21
sbag1
(g8
g3
NtRp111
(dp112
g11
g28
sg13
VSTIXGeneral
p113
sg15
I700
sg16
g12
sg17
g12
sg18
V/usr/share/matplotlib/mpl-data/fonts/ttf/STIXGeneralBolIta.ttf
p114
sg20
g21
sbag1
(g8
g3
NtRp115
(dp116
g11
g12
sg13
VLato
p117
sg15
I400
sg16
g12
sg17
g12
sg18
V/usr/share/fonts/truetype/lato/Lato-Hairline.ttf
p118
sg20
g21
sbag1
(g8
g3
NtRp119
(dp120
g11
g12
sg13
VBitstream Vera Sans
p121
sg15
I400
sg16
g12
sg17
g12
sg18
V/usr/share/fonts/truetype/ttf-bitstream-vera/Vera.ttf
p122
sg20
g21
sbag1
(g8
g3
NtRp123
(dp124
g11
g28
sg13
VDejaVu Serif
p125
sg15
I700
sg16
Vcondensed
p126
sg17
g12
sg18
V/usr/share/fonts/truetype/dejavu/DejaVuSerifCondensed-BoldItalic.ttf
p127
sg20
g21
sbag1
(g8
g3
NtRp128
(dp129
g11
g12
sg13
VMathJax_Math
p130
sg15
I400
sg16
g12
sg17
g12
sg18
V/usr/share/fonts/opentype/mathjax/MathJax_Math-Regular.otf
p131
sg20
g21
sbag1
(g8
g3
NtRp132
(dp133
g11
g12
sg13
VMathJax_SansSerif
p134
sg15
I400
sg16
g12
sg17
g12
sg18
V/usr/share/fonts/opentype/mathjax/MathJax_SansSerif-Regular.otf
p135
sg20
g21
sbag1
(g8
g3
NtRp136
(dp137
g11
g12
sg13
VBitstream Vera Sans
p138
sg15
I700
sg16
g12
sg17
g12
sg18
V/usr/share/fonts/truetype/ttf-bitstream-vera/VeraBd.ttf
p139
sg20
g21
sbag1
(g8
g3
NtRp140
(dp141
g11
g12
sg13
VDejaVu Serif
p142
sg15
I400
sg16
g12
sg17
g12
sg18
V/usr/share/fonts/truetype/dejavu/DejaVuSerif.ttf
p143
sg20
g21
sbag1
(g8
g3
NtRp144
(dp145
g11
g12
sg13
VDejaVu Sans
p146
sg15
I700
sg16
g12
sg17
g12
sg18
V/usr/share/fonts/truetype/dejavu/DejaVuSans-Bold.ttf
p147
sg20
g21
sbag1
(g8
g3
NtRp148
(dp149
g11
g12
sg13
VMathJax_Typewriter
p150
sg15
I400
sg16
g12
sg17
g12
sg18
V/usr/share/fonts/opentype/mathjax/MathJax_Typewriter-Regular.otf
p151
sg20
g21
sbag1
(g8
g3
NtRp152
(dp153
g11
g12
sg13
Vmsam10
p154
sg15
I400
sg16
g12
sg17
g12
sg18
V/usr/share/fonts/truetype/lyx/msam10.ttf
p155
sg20
g21
sbag1
(g8
g3
NtRp156
(dp157
g11
g28
sg13
VMathJax_Main
p158
sg15
I400
sg16
g12
sg17
g12
sg18
V/usr/share/fonts/opentype/mathjax/MathJax_Main-Italic.otf
p159
sg20
g21
sbag1
(g8
g3
NtRp160
(dp161
g11
g28
sg13
VLato
p162
sg15
I400
sg16
g12
sg17
g12
sg18
V/usr/share/fonts/truetype/lato/Lato-Italic.ttf
p163
sg20
g21
sbag1
(g8
g3
NtRp164
(dp165
g11
g12
sg13
VMathJax_Script
p166
sg15
I400
sg16
g12
sg17
g12
sg18
V/usr/share/fonts/opentype/mathjax/MathJax_Script-Regular.otf
p167
sg20
g21
sbag1
(g8
g3
NtRp168
(dp169
g11
g28
sg13
VLato
p170
sg15
I500
sg16
g12
sg17
g12
sg18
V/usr/share/fonts/truetype/lato/Lato-MediumItalic.ttf
p171
sg20
g21
sbag1
(g8
g3
NtRp172
(dp173
g11
g12
sg13
VLiberation Sans
p174
sg15
I700
sg16
g12
sg17
g12
sg18
V/usr/share/fonts/truetype/liberation/LiberationSans-Bold.ttf
p175
sg20
g21
sbag1
(g8
g3
NtRp176
(dp177
g11
g12
sg13
VBitstream Vera Sans Mono
p178
sg15
I700
sg16
g12
sg17
g12
sg18
V/usr/share/fonts/truetype/ttf-bitstream-vera/VeraMoBd.ttf
p179
sg20
g21
sbag1
(g8
g3
NtRp180
(dp181
g11
g12
sg13
VDejaVu Serif
p182
sg15
I700
sg16
g126
sg17
g12
sg18
V/usr/share/fonts/truetype/dejavu/DejaVuSerifCondensed-Bold.ttf
p183
sg20
g21
sbag1
(g8
g3
NtRp184
(dp185
g11
g12
sg13
VLiberation Mono
p186
sg15
I400
sg16
g12
sg17
g12
sg18
V/usr/share/fonts/truetype/liberation/LiberationMono-Regular.ttf
p187
sg20
g21
sbag1
(g8
g3
NtRp188
(dp189
g11
g12
sg13
VLato
p190
sg15
I400
sg16
g12
sg17
g12
sg18
V/usr/share/fonts/truetype/lato/Lato-Regular.ttf
p191
sg20
g21
sbag1
(g8
g3
NtRp192
(dp193
g11
g12
sg13
VFontAwesome
p194
sg15
I400
sg16
g12
sg17
g12
sg18
V/usr/share/fonts/opentype/font-awesome/FontAwesome.otf
p195
sg20
g21
sbag1
(g8
g3
NtRp196
(dp197
g11
g28
sg13
Vrsfs10
p198
sg15
I400
sg16
g12
sg17
g12
sg18
V/usr/share/fonts/truetype/lyx/rsfs10.ttf
p199
sg20
g21
sbag1
(g8
g3
NtRp200
(dp201
g11
Voblique
p202
sg13
VDejaVu Sans
p203
sg15
I400
sg16
g126
sg17
g12
sg18
V/usr/share/fonts/truetype/dejavu/DejaVuSansCondensed-Oblique.ttf
p204
sg20
g21
sbag1
(g8
g3
NtRp205
(dp206
g11
g202
sg13
VDejaVu Sans
p207
sg15
I700
sg16
g12
sg17
g12
sg18
V/usr/share/fonts/truetype/dejavu/DejaVuSans-BoldOblique.ttf
p208
sg20
g21
sbag1
(g8
g3
NtRp209
(dp210
g11
g12
sg13
VLato
p211
sg15
I500
sg16
g12
sg17
g12
sg18
V/usr/share/fonts/truetype/lato/Lato-Medium.ttf
p212
sg20
g21
sbag1
(g8
g3
NtRp213
(dp214
g11
g202
sg13
VDejaVu Sans
p215
sg15
I400
sg16
g12
sg17
g12
sg18
V/usr/share/fonts/truetype/dejavu/DejaVuSans-Oblique.ttf
p216
sg20
g21
sbag1
(g8
g3
NtRp217
(dp218
g11
g12
sg13
VMathJax_Main
p219
sg15
I400
sg16
g12
sg17
g12
sg18
V/usr/share/fonts/opentype/mathjax/MathJax_Main-Regular.otf
p220
sg20
g21
sbag1
(g8
g3
NtRp221
(dp222
g11
g12
sg13
VMathJax_Size4
p223
sg15
I400
sg16
g12
sg17
g12
sg18
V/usr/share/fonts/opentype/mathjax/MathJax_Size4-Regular.otf
p224
sg20
g21
sbag1
(g8
g3
NtRp225
(dp226
g11
g28
sg13
VLato
p227
sg15
I800
sg16
g12
sg17
g12
sg18
V/usr/share/fonts/truetype/lato/Lato-HeavyItalic.ttf
p228
sg20
g21
sbag1
(g8
g3
NtRp229
(dp230
g11
g28
sg13
VLiberation Mono
p231
sg15
I400
sg16
g12
sg17
g12
sg18
V/usr/share/fonts/truetype/liberation/LiberationMono-Italic.ttf
p232
sg20
g21
sbag1
(g8
g3
NtRp233
(dp234
g11
g12
sg13
Vmsbm10
p235
sg15
I400
sg16
g12
sg17
g12
sg18
V/usr/share/fonts/truetype/lyx/msbm10.ttf
p236
sg20
g21
sbag1
(g8
g3
NtRp237
(dp238
g11
g28
sg13
VLiberation Serif
p239
sg15
I700
sg16
g12
sg17
g12
sg18
V/usr/share/fonts/truetype/liberation/LiberationSerif-BoldItalic.ttf
p240
sg20
g21
sbag1
(g8
g3
NtRp241
(dp242
g11
g28
sg13
VDejaVu Serif
p243
sg15
I400
sg16
g12
sg17
g12
sg18
V/usr/share/fonts/truetype/dejavu/DejaVuSerif-Italic.ttf
p244
sg20
g21
sbag1
(g8
g3
NtRp245
(dp246
g11
g12
sg13
VLiberation Serif
p247
sg15
I700
sg16
g12
sg17
g12
sg18
V/usr/share/fonts/truetype/liberation/LiberationSerif-Bold.ttf
p248
sg20
g21
sbag1
(g8
g3
NtRp249
(dp250
g11
g28
sg13
VLiberation Sans
p251
sg15
I400
sg16
g12
sg17
g12
sg18
V/usr/share/fonts/truetype/liberation/LiberationSans-Italic.ttf
p252
sg20
g21
sbag1
(g8
g3
NtRp253
(dp254
g11
g202
sg13
VDejaVu Sans Mono
p255
sg15
I400
sg16
g12
sg17
g12
sg18
V/usr/share/fonts/truetype/dejavu/DejaVuSansMono-Oblique.ttf
p256
sg20
g21
sbag1
(g8
g3
NtRp257
(dp258
g11
g28
sg13
VLato
p259
sg15
I700
sg16
g12
sg17
g12
sg18
V/usr/share/fonts/truetype/lato/Lato-BoldItalic.ttf
p260
sg20
g21
sbag1
(g8
g3
NtRp261
(dp262
g11
g12
sg13
VDejaVu Serif
p263
sg15
I400
sg16
g126
sg17
g12
sg18
V/usr/share/fonts/truetype/dejavu/DejaVuSerifCondensed.ttf
p264
sg20
g21
sbag1
(g8
g3
NtRp265
(dp266
g11
g202
sg13
VBitstream Vera Sans
p267
sg15
I700
sg16
g12
sg17
g12
sg18
V/usr/share/fonts/truetype/ttf-bitstream-vera/VeraBI.ttf
p268
sg20
g21
sbag1
(g8
g3
NtRp269
(dp270
g11
g12
sg13
Veufm10
p271
sg15
I400
sg16
g12
sg17
g12
sg18
V/usr/share/fonts/truetype/lyx/eufm10.ttf
p272
sg20
g21
sbag1
(g8
g3
NtRp273
(dp274
g11
g12
sg13
Vesint10
p275
sg15
I400
sg16
g12
sg17
g12
sg18
V/usr/share/fonts/truetype/lyx/esint10.ttf
p276
sg20
g21
sbag1
(g8
g3
NtRp277
(dp278
g11
g12
sg13
VFontAwesome
p279
sg15
I400
sg16
g12
sg17
g12
sg18
V/usr/share/fonts/truetype/font-awesome/fontawesome-webfont.ttf
p280
sg20
g21
sbag1
(g8
g3
NtRp281
(dp282
g11
g28
sg13
VDejaVu Serif
p283
sg15
I700
sg16
g12
sg17
g12
sg18
V/usr/share/fonts/truetype/dejavu/DejaVuSerif-BoldItalic.ttf
p284
sg20
g21
sbag1
(g8
g3
NtRp285
(dp286
g11
g28
sg13
VMathJax_SansSerif
p287
sg15
I400
sg16
g12
sg17
g12
sg18
V/usr/share/fonts/opentype/mathjax/MathJax_SansSerif-Italic.otf
p288
sg20
g21
sbag1
(g8
g3
NtRp289
(dp290
g11
g12
sg13
VLato
p291
sg15
I400
sg16
g12
sg17
g12
sg18
V/usr/share/fonts/truetype/lato/Lato-Thin.ttf
p292
sg20
g21
sbag1
(g8
g3
NtRp293
(dp294
g11
g12
sg13
VMathJax_AMS
p295
sg15
I400
sg16
g12
sg17
g12
sg18
V/usr/share/fonts/opentype/mathjax/MathJax_AMS-Regular.otf
p296
sg20
g21
sbag1
(g8
g3
NtRp297
(dp298
g11
g28
sg13
VLiberation Sans
p299
sg15
I700
sg16
g12
sg17
g12
sg18
V/usr/share/fonts/truetype/liberation/LiberationSans-BoldItalic.ttf
p300
sg20
g21
sbag1
(g8
g3
NtRp301
(dp302
g11
g12
sg13
VMathJax_WinChrome
p303
sg15
I400
sg16
g12
sg17
g12
sg18
V/usr/share/fonts/opentype/mathjax/MathJax_WinChrome-Regular.otf
p304
sg20
g21
sbag1
(g8
g3
NtRp305
(dp306
g11
g12
sg13
VLato
p307
sg15
I800
sg16
g12
sg17
g12
sg18
V/usr/share/fonts/truetype/lato/Lato-Heavy.ttf
p308
sg20
g21
sbag1
(g8
g3
NtRp309
(dp310
g11
g202
sg13
VBitstream Vera Sans
p311
sg15
I400
sg16
g12
sg17
g12
sg18
V/usr/share/fonts/truetype/ttf-bitstream-vera/VeraIt.ttf
p312
sg20
g21
sbag1
(g8
g3
NtRp313
(dp314
g11
g12
sg13
VMathJax_Fraktur
p315
sg15
I700
sg16
g12
sg17
g12
sg18
V/usr/share/fonts/opentype/mathjax/MathJax_Fraktur-Bold.otf
p316
sg20
g21
sbag1
(g8
g3
NtRp317
(dp318
g11
g202
sg13
VDejaVu Sans Mono
p319
sg15
I700
sg16
g12
sg17
g12
sg18
V/usr/share/fonts/truetype/dejavu/DejaVuSansMono-BoldOblique.ttf
p320
sg20
g21
sbag1
(g8
g3
NtRp321
(dp322
g11
g12
sg13
VLato
p323
sg15
I900
sg16
g12
sg17
g12
sg18
V/usr/share/fonts/truetype/lato/Lato-Black.ttf
p324
sg20
g21
sbag1
(g8
g3
NtRp325
(dp326
g11
g12
sg13
VMathJax_SansSerif
p327
sg15
I700
sg16
g12
sg17
g12
sg18
V/usr/share/fonts/opentype/mathjax/MathJax_SansSerif-Bold.otf
p328
sg20
g21
sbag1
(g8
g3
NtRp329
(dp330
g11
g12
sg13
VMathJax_Caligraphic
p331
sg15
I400
sg16
g12
sg17
g12
sg18
V/usr/share/fonts/opentype/mathjax/MathJax_Caligraphic-Regular.otf
p332
sg20
g21
sbag1
(g8
g3
NtRp333
(dp334
g11
g12
sg13
VBitstream Vera Sans Mono
p335
sg15
I400
sg16
g12
sg17
g12
sg18
V/usr/share/fonts/truetype/ttf-bitstream-vera/VeraMono.ttf
p336
sg20
g21
sbag1
(g8
g3
NtRp337
(dp338
g11
g12
sg13
VDejaVu Sans
p339
sg15
I200
sg16
g12
sg17
g12
sg18
V/usr/share/fonts/truetype/dejavu/DejaVuSans-ExtraLight.ttf
p340
sg20
g21
sbag1
(g8
g3
NtRp341
(dp342
g11
g12
sg13
VLato
p343
sg15
I700
sg16
g12
sg17
g12
sg18
V/usr/share/fonts/truetype/lato/Lato-Semibold.ttf
p344
sg20
g21
sbag1
(g8
g3
NtRp345
(dp346
g11
g12
sg13
Vwasy10
p347
sg15
I400
sg16
g12
sg17
g12
sg18
V/usr/share/fonts/truetype/lyx/wasy10.ttf
p348
sg20
g21
sbag1
(g8
g3
NtRp349
(dp350
g11
g28
sg13
VLiberation Mono
p351
sg15
I700
sg16
g12
sg17
g12
sg18
V/usr/share/fonts/truetype/liberation/LiberationMono-BoldItalic.ttf
p352
sg20
g21
sbag1
(g8
g3
NtRp353
(dp354
g11
g12
sg13
VDejaVu Sans
p355
sg15
I400
sg16
g126
sg17
g12
sg18
V/usr/share/fonts/truetype/dejavu/DejaVuSansCondensed.ttf
p356
sg20
g21
sbag1
(g8
g3
NtRp357
(dp358
g11
g12
sg13
VDejaVu Sans Mono
p359
sg15
I400
sg16
g12
sg17
g12
sg18
V/usr/share/fonts/truetype/dejavu/DejaVuSansMono.ttf
p360
sg20
g21
sbag1
(g8
g3
NtRp361
(dp362
g11
g202
sg13
VDejaVu Sans
p363
sg15
I700
sg16
g126
sg17
g12
sg18
V/usr/share/fonts/truetype/dejavu/DejaVuSansCondensed-BoldOblique.ttf
p364
sg20
g21
sbag1
(g8
g3
NtRp365
(dp366
g11
g12
sg13
VMathJax_Fraktur
p367
sg15
I400
sg16
g12
sg17
g12
sg18
V/usr/share/fonts/opentype/mathjax/MathJax_Fraktur-Regular.otf
p368
sg20
g21
sbag1
(g8
g3
NtRp369
(dp370
g11
g12
sg13
VMathJax_WinIE6
p371
sg15
I400
sg16
g12
sg17
g12
sg18
V/usr/share/fonts/opentype/mathjax/MathJax_WinIE6-Regular.otf
p372
sg20
g21
sbag1
(g8
g3
NtRp373
(dp374
g11
g12
sg13
VDejaVu Serif
p375
sg15
I700
sg16
g12
sg17
g12
sg18
V/usr/share/fonts/truetype/dejavu/DejaVuSerif-Bold.ttf
p376
sg20
g21
sbag1
(g8
g3
NtRp377
(dp378
g11
g28
sg13
VLato
p379
sg15
I400
sg16
g12
sg17
g12
sg18
V/usr/share/fonts/truetype/lato/Lato-HairlineItalic.ttf
p380
sg20
g21
sbag1
(g8
g3
NtRp381
(dp382
g11
g12
sg13
VLiberation Mono
p383
sg15
I700
sg16
g12
sg17
g12
sg18
V/usr/share/fonts/truetype/liberation/LiberationMono-Bold.ttf
p384
sg20
g21
sbag1
(g8
g3
NtRp385
(dp386
g11
g12
sg13
VLato
p387
sg15
I700
sg16
g12
sg17
g12
sg18
V/usr/share/fonts/truetype/lato/Lato-Bold.ttf
p388
sg20
g21
sbag1
(g8
g3
NtRp389
(dp390
g11
g28
sg13
VLiberation Serif
p391
sg15
I400
sg16
g12
sg17
g12
sg18
V/usr/share/fonts/truetype/liberation/LiberationSerif-Italic.ttf
p392
sg20
g21
sbag1
(g8
g3
NtRp393
(dp394
g11
g12
sg13
VMathJax_Size2
p395
sg15
I400
sg16
g12
sg17
g12
sg18
V/usr/share/fonts/opentype/mathjax/MathJax_Size2-Regular.otf
p396
sg20
g21
sbag1
(g8
g3
NtRp397
(dp398
g11
g12
sg13
VMathJax_Size3
p399
sg15
I400
sg16
g12
sg17
g12
sg18
V/usr/share/fonts/opentype/mathjax/MathJax_Size3-Regular.otf
p400
sg20
g21
sbag1
(g8
g3
NtRp401
(dp402
g11
g28
sg13
VDejaVu Serif
p403
sg15
I400
sg16
g126
sg17
g12
sg18
V/usr/share/fonts/truetype/dejavu/DejaVuSerifCondensed-Italic.ttf
p404
sg20
g21
sbag1
(g8
g3
NtRp405
(dp406
g11
g12
sg13
VLato
p407
sg15
I200
sg16
g12
sg17
g12
sg18
V/usr/share/fonts/truetype/lato/Lato-Light.ttf
p408
sg20
g21
sbag1
(g8
g3
NtRp409
(dp410
g11
g28
sg13
VLiberation Sans Narrow
p411
sg15
I700
sg16
g126
sg17
g12
sg18
V/usr/share/fonts/truetype/liberation/LiberationSansNarrow-BoldItalic.ttf
p412
sg20
g21
sbag1
(g8
g3
NtRp413
(dp414
g11
g12
sg13
VLiberation Serif
p415
sg15
I400
sg16
g12
sg17
g12
sg18
V/usr/share/fonts/truetype/liberation/LiberationSerif-Regular.ttf
p416
sg20
g21
sbag1
(g8
g3
NtRp417
(dp418
g11
g28
sg13
VLato
p419
sg15
I700
sg16
g12
sg17
g12
sg18
V/usr/share/fonts/truetype/lato/Lato-SemiboldItalic.ttf
p420
sg20
g21
sbag1
(g8
g3
NtRp421
(dp422
g11
g12
sg13
VLiberation Sans
p423
sg15
I400
sg16
g12
sg17
g12
sg18
V/usr/share/fonts/truetype/liberation/LiberationSans-Regular.ttf
p424
sg20
g21
sbag1
(g8
g3
NtRp425
(dp426
g11
g202
sg13
VBitstream Vera Sans Mono
p427
sg15
I700
sg16
g12
sg17
g12
sg18
V/usr/share/fonts/truetype/ttf-bitstream-vera/VeraMoBI.ttf
p428
sg20
g21
sbag1
(g8
g3
NtRp429
(dp430
g11
g12
sg13
VMathJax_Main
p431
sg15
I700
sg16
g12
sg17
g12
sg18
V/usr/share/fonts/opentype/mathjax/MathJax_Main-Bold.otf
p432
sg20
g21
sbag1
(g8
g3
NtRp433
(dp434
g11
g12
sg13
VDejaVu Sans
p435
sg15
I400
sg16
g12
sg17
g12
sg18
V/usr/share/fonts/truetype/dejavu/DejaVuSans.ttf
p436
sg20
g21
sbag1
(g8
g3
NtRp437
(dp438
g11
g12
sg13
VMathJax_Size1
p439
sg15
I400
sg16
g12
sg17
g12
sg18
V/usr/share/fonts/opentype/mathjax/MathJax_Size1-Regular.otf
p440
sg20
g21
sbag1
(g8
g3
NtRp441
(dp442
g11
g12
sg13
VBitstream Vera Serif
p443
sg15
I400
sg16
g12
sg17
g12
sg18
V/usr/share/fonts/truetype/ttf-bitstream-vera/VeraSe.ttf
p444
sg20
g21
sbag1
(g8
g3
NtRp445
(dp446
g11
g12
sg13
VLiberation Sans Narrow
p447
sg15
I700
sg16
g126
sg17
g12
sg18
V/usr/share/fonts/truetype/liberation/LiberationSansNarrow-Bold.ttf
p448
sg20
g21
sbag1
(g8
g3
NtRp449
(dp450
g11
g12
sg13
VLiberation Sans Narrow
p451
sg15
I400
sg16
g126
sg17
g12
sg18
V/usr/share/fonts/truetype/liberation/LiberationSansNarrow-Regular.ttf
p452
sg20
g21
sbag1
(g8
g3
NtRp453
(dp454
g11
g28
sg13
VLato
p455
sg15
I200
sg16
g12
sg17
g12
sg18
V/usr/share/fonts/truetype/lato/Lato-LightItalic.ttf
p456
sg20
g21
sbag1
(g8
g3
NtRp457
(dp458
g11
g202
sg13
VBitstream Vera Sans Mono
p459
sg15
I400
sg16
g12
sg17
g12
sg18
V/usr/share/fonts/truetype/ttf-bitstream-vera/VeraMoIt.ttf
p460
sg20
g21
sbag1
(g8
g3
NtRp461
(dp462
g11
g28
sg13
VLato
p463
sg15
I400
sg16
g12
sg17
g12
sg18
V/usr/share/fonts/truetype/lato/Lato-ThinItalic.ttf
p464
sg20
g21
sbag1
(g8
g3
NtRp465
(dp466
g11
g12
sg13
Vstmary10
p467
sg15
I400
sg16
g12
sg17
g12
sg18
V/usr/share/fonts/truetype/lyx/stmary10.ttf
p468
sg20
g21
sbag1
(g8
g3
NtRp469
(dp470
g11
g12
sg13
VMathJax_Caligraphic
p471
sg15
I700
sg16
g12
sg17
g12
sg18
V/usr/share/fonts/opentype/mathjax/MathJax_Caligraphic-Bold.otf
p472
sg20
g21
sbag1
(g8
g3
NtRp473
(dp474
g11
g28
sg13
VMathJax_Math
p475
sg15
I400
sg16
g12
sg17
g12
sg18
V/usr/share/fonts/opentype/mathjax/MathJax_Math-Italic.otf
p476
sg20
g21
sbag1
(g8
g3
NtRp477
(dp478
g11
g12
sg13
VDejaVu Sans Mono
p479
sg15
I700
sg16
g12
sg17
g12
sg18
V/usr/share/fonts/truetype/dejavu/DejaVuSansMono-Bold.ttf
p480
sg20
g21
sbag1
(g8
g3
NtRp481
(dp482
g11
g28
sg13
VLato
p483
sg15
I900
sg16
g12
sg17
g12
sg18
V/usr/share/fonts/truetype/lato/Lato-BlackItalic.ttf
p484
sg20
g21
sbag1
(g8
g3
NtRp485
(dp486
g11
g12
sg13
VDejaVu Sans
p487
sg15
I700
sg16
g126
sg17
g12
sg18
V/usr/share/fonts/truetype/dejavu/DejaVuSansCondensed-Bold.ttf
p488
sg20
g21
sbag1
(g8
g3
NtRp489
(dp490
g11
g28
sg13
VMathJax_Math
p491
sg15
I700
sg16
g12
sg17
g12
sg18
V/usr/share/fonts/opentype/mathjax/MathJax_Math-BoldItalic.otf
p492
sg20
g21
sbag1
(g8
g3
NtRp493
(dp494
g11
g28
sg13
VLiberation Sans Narrow
p495
sg15
I400
sg16
g126
sg17
g12
sg18
V/usr/share/fonts/truetype/liberation/LiberationSansNarrow-Italic.ttf
p496
sg20
g21
sbag1
(g8
g3
NtRp497
(dp498
g11
g12
sg13
VBitstream Vera Serif
p499
sg15
I700
sg16
g12
sg17
g12
sg18
V/usr/share/fonts/truetype/ttf-bitstream-vera/VeraSeBd.ttf
p500
sg20
g21
sbasS'defaultFamily'
p501
(dp502
Vafm
p503
VHelvetica
p504
sVttf
p505
VBitstream Vera Sans
p506
ssS'ttffiles'
p507
(lp508
g19
ag25
ag30
ag34
ag38
ag42
ag46
ag50
ag54
ag58
ag62
ag66
ag70
ag74
ag78
ag82
ag86
ag90
ag94
ag98
ag102
ag106
ag110
ag114
ag118
aV/usr/share/fonts/truetype/lyx/cmr10.ttf
p509
ag122
ag127
ag131
ag135
ag139
ag143
ag147
ag151
ag155
ag159
ag163
aV/usr/share/fonts/truetype/lyx/cmmi10.ttf
p510
ag167
ag171
ag175
ag179
ag183
ag187
ag191
ag195
ag199
ag204
ag208
ag212
ag216
ag220
ag224
ag228
ag232
ag236
ag240
ag244
ag248
ag252
ag256
ag260
ag264
ag268
ag272
ag276
ag280
ag284
ag288
ag292
ag296
ag300
ag304
ag308
ag312
ag316
ag320
ag324
ag328
ag332
ag336
ag340
ag344
ag348
ag352
ag356
ag360
ag364
ag368
aV/usr/share/fonts/truetype/lyx/cmsy10.ttf
p511
ag372
ag376
ag380
ag384
ag388
ag392
ag396
ag400
ag404
ag408
ag412
ag416
ag420
ag424
ag428
ag432
ag436
ag440
ag444
ag448
ag452
ag456
ag460
ag464
aV/usr/share/fonts/truetype/lyx/cmex10.ttf
p512
ag468
ag472
ag476
ag480
ag484
ag488
ag492
ag496
ag500
asS'_FontManager__default_weight'
p513
Vnormal
p514
sS'_version'
p515
I101
sS'default_size'
p516
NsS'defaultFont'
p517
(dp518
g503
V/usr/share/matplotlib/mpl-data/fonts/afm/pzcmi8a.afm
p519
sg505
g122
ssS'afmfiles'
p520
(lp521
g519
aV/usr/share/matplotlib/mpl-data/fonts/afm/phvl8a.afm
p522
aV/usr/share/matplotlib/mpl-data/fonts/afm/putbi8a.afm
p523
aV/usr/share/matplotlib/mpl-data/fonts/pdfcorefonts/Helvetica-BoldOblique.afm
p524
aV/usr/share/matplotlib/mpl-data/fonts/afm/phvro8an.afm
p525
aV/usr/share/matplotlib/mpl-data/fonts/afm/pbkd8a.afm
p526
aV/usr/share/matplotlib/mpl-data/fonts/afm/pcrbo8a.afm
p527
aV/usr/share/matplotlib/mpl-data/fonts/pdfcorefonts/Helvetica-Bold.afm
p528
aV/usr/share/matplotlib/mpl-data/fonts/pdfcorefonts/Times-BoldItalic.afm
p529
aV/usr/share/matplotlib/mpl-data/fonts/afm/putr8a.afm
p530
aV/usr/share/matplotlib/mpl-data/fonts/afm/phvr8a.afm
p531
aV/usr/share/matplotlib/mpl-data/fonts/afm/pcrr8a.afm
p532
aV/usr/share/matplotlib/mpl-data/fonts/afm/pncri8a.afm
p533
aV/usr/share/matplotlib/mpl-data/fonts/afm/pncb8a.afm
p534
aV/usr/share/matplotlib/mpl-data/fonts/pdfcorefonts/Courier-Bold.afm
p535
aV/usr/share/matplotlib/mpl-data/fonts/afm/pncbi8a.afm
p536
aV/usr/share/matplotlib/mpl-data/fonts/afm/cmex10.afm
p537
aV/usr/share/matplotlib/mpl-data/fonts/afm/cmtt10.afm
p538
aV/usr/share/matplotlib/mpl-data/fonts/pdfcorefonts/Symbol.afm
p539
aV/usr/share/matplotlib/mpl-data/fonts/afm/phvr8an.afm
p540
aV/usr/share/matplotlib/mpl-data/fonts/afm/phvro8a.afm
p541
aV/usr/share/matplotlib/mpl-data/fonts/afm/ptmr8a.afm
p542
aV/usr/share/matplotlib/mpl-data/fonts/pdfcorefonts/Helvetica-Oblique.afm
p543
aV/usr/share/matplotlib/mpl-data/fonts/afm/pplbi8a.afm
p544
aV/usr/share/matplotlib/mpl-data/fonts/afm/cmsy10.afm
p545
aV/usr/share/matplotlib/mpl-data/fonts/afm/pagk8a.afm
p546
aV/usr/share/matplotlib/mpl-data/fonts/pdfcorefonts/Courier-BoldOblique.afm
p547
aV/usr/share/matplotlib/mpl-data/fonts/afm/putb8a.afm
p548
aV/usr/share/matplotlib/mpl-data/fonts/afm/cmmi10.afm
p549
aV/usr/share/matplotlib/mpl-data/fonts/afm/pagko8a.afm
p550
aV/usr/share/matplotlib/mpl-data/fonts/afm/phvbo8an.afm
p551
aV/usr/share/matplotlib/mpl-data/fonts/afm/phvbo8a.afm
p552
aV/usr/share/matplotlib/mpl-data/fonts/afm/cmr10.afm
p553
aV/usr/share/matplotlib/mpl-data/fonts/pdfcorefonts/Times-Bold.afm
p554
aV/usr/share/matplotlib/mpl-data/fonts/afm/pagdo8a.afm
p555
aV/usr/share/matplotlib/mpl-data/fonts/afm/psyr.afm
p556
aV/usr/share/matplotlib/mpl-data/fonts/afm/phvlo8a.afm
p557
aV/usr/share/matplotlib/mpl-data/fonts/afm/phvb8a.afm
p558
aV/usr/share/matplotlib/mpl-data/fonts/afm/pplb8a.afm
p559
aV/usr/share/matplotlib/mpl-data/fonts/afm/pzdr.afm
p560
aV/usr/share/matplotlib/mpl-data/fonts/afm/ptmri8a.afm
p561
aV/usr/share/matplotlib/mpl-data/fonts/afm/pplr8a.afm
p562
aV/usr/share/matplotlib/mpl-data/fonts/afm/pbkl8a.afm
p563
aV/usr/share/matplotlib/mpl-data/fonts/pdfcorefonts/Times-Roman.afm
p564
aV/usr/share/matplotlib/mpl-data/fonts/afm/pcrro8a.afm
p565
aV/usr/share/matplotlib/mpl-data/fonts/pdfcorefonts/ZapfDingbats.afm
p566
aV/usr/share/matplotlib/mpl-data/fonts/afm/ptmb8a.afm
p567
aV/usr/share/matplotlib/mpl-data/fonts/pdfcorefonts/Helvetica.afm
p568
aV/usr/share/matplotlib/mpl-data/fonts/afm/pplri8a.afm
p569
aV/usr/share/matplotlib/mpl-data/fonts/afm/ptmbi8a.afm
p570
aV/usr/share/matplotlib/mpl-data/fonts/afm/pbkli8a.afm
p571
aV/usr/share/matplotlib/mpl-data/fonts/pdfcorefonts/Courier-Oblique.afm
p572
aV/usr/share/matplotlib/mpl-data/fonts/afm/pcrb8a.afm
p573
aV/usr/share/matplotlib/mpl-data/fonts/afm/pagd8a.afm
p574
aV/usr/share/matplotlib/mpl-data/fonts/afm/pncr8a.afm
p575
aV/usr/share/matplotlib/mpl-data/fonts/pdfcorefonts/Times-Italic.afm
p576
aV/usr/share/matplotlib/mpl-data/fonts/afm/pbkdi8a.afm
p577
aV/usr/share/matplotlib/mpl-data/fonts/afm/putri8a.afm
p578
aV/usr/share/matplotlib/mpl-data/fonts/pdfcorefonts/Courier.afm
p579
aV/usr/share/matplotlib/mpl-data/fonts/afm/phvb8an.afm
p580
aV/usr/share/fonts/X11/Type1/lmtt10.afm
p581
aV/usr/share/fonts/type1/gsfonts/p052004l.afm
p582
aV/usr/share/fonts/X11/Type1/lmssqo8.afm
p583
aV/usr/share/fonts/type1/gsfonts/b018015l.afm
p584
aV/usr/share/fonts/X11/Type1/lmbxo10.afm
p585
aV/usr/share/fonts/type1/texlive-fonts-recommended/pcrro8a.afm
p586
aV/usr/share/fonts/type1/gsfonts/n022024l.afm
p587
aV/usr/share/fonts/X11/Type1/lmtlc10.afm
p588
aV/usr/share/fonts/X11/Type1/lmtk10.afm
p589
aV/usr/share/fonts/X11/Type1/qbkr.afm
p590
aV/usr/share/fonts/X11/Type1/lmdunh10.afm
p591
aV/usr/share/fonts/type1/gsfonts/n019003l.afm
p592
aV/usr/share/fonts/X11/Type1/qcsri.afm
p593
aV/usr/share/fonts/X11/Type1/lmtti10.afm
p594
aV/usr/share/fonts/X11/Type1/qcrr.afm
p595
aV/usr/share/fonts/type1/gsfonts/c059036l.afm
p596
aV/usr/share/fonts/type1/texlive-fonts-recommended/putri8a.afm
p597
aV/usr/share/fonts/X11/Type1/qhvcb.afm
p598
aV/usr/share/fonts/X11/Type1/lmssbx10.afm
p599
aV/usr/share/fonts/X11/Type1/lmvtlo10.afm
p600
aV/usr/share/fonts/X11/Type1/lmtcso10.afm
p601
aV/usr/share/fonts/type1/gsfonts/n019063l.afm
p602
aV/usr/share/fonts/X11/Type1/c0419bt_.afm
p603
aV/usr/share/fonts/type1/gsfonts/n021024l.afm
p604
aV/usr/share/fonts/type1/gsfonts/n019024l.afm
p605
aV/usr/share/fonts/X11/Type1/qhvbi.afm
p606
aV/usr/share/fonts/X11/Type1/qcsb.afm
p607
aV/usr/share/fonts/X11/Type1/lmbx10.afm
p608
aV/usr/share/fonts/type1/gsfonts/d050000l.afm
p609
aV/usr/share/fonts/X11/Type1/lmssdo10.afm
p610
aV/usr/share/fonts/X11/Type1/lmssqbx8.afm
p611
aV/usr/share/fonts/X11/Type1/qhvb.afm
p612
aV/usr/share/fonts/X11/Type1/lmb10.afm
p613
aV/usr/share/fonts/type1/gsfonts/n019044l.afm
p614
aV/usr/share/fonts/type1/gsfonts/z003034l.afm
p615
aV/usr/share/fonts/X11/Type1/qhvr.afm
p616
aV/usr/share/fonts/X11/Type1/lmbxi10.afm
p617
aV/usr/share/fonts/X11/Type1/lmcsco10.afm
p618
aV/usr/share/fonts/type1/texlive-fonts-recommended/putr8a.afm
p619
aV/usr/share/fonts/type1/gsfonts/b018012l.afm
p620
aV/usr/share/fonts/X11/Type1/lmssbo10.afm
p621
aV/usr/share/fonts/X11/Type1/qplr.afm
p622
aV/usr/share/fonts/X11/Type1/qcsr.afm
p623
aV/usr/share/fonts/type1/gsfonts/a010013l.afm
p624
aV/usr/share/fonts/X11/Type1/c0583bt_.afm
p625
aV/usr/share/fonts/X11/Type1/qagri.afm
p626
aV/usr/share/fonts/X11/Type1/qbkbi.afm
p627
aV/usr/share/fonts/type1/texlive-fonts-recommended/bchbi8a.afm
p628
aV/usr/share/fonts/X11/Type1/lmcsc10.afm
p629
aV/usr/share/fonts/X11/Type1/qcrbi.afm
p630
aV/usr/share/fonts/X11/Type1/qcrb.afm
p631
aV/usr/share/fonts/X11/Type1/lmssqbo8.afm
p632
aV/usr/share/fonts/type1/gsfonts/p052003l.afm
p633
aV/usr/share/fonts/type1/gsfonts/b018032l.afm
p634
aV/usr/share/fonts/X11/Type1/lmvtk10.afm
p635
aV/usr/share/fonts/type1/gsfonts/n021023l.afm
p636
aV/usr/share/fonts/X11/Type1/qhvri.afm
p637
aV/usr/share/fonts/X11/Type1/lmtlo10.afm
p638
aV/usr/share/fonts/X11/Type1/lmvtl10.afm
p639
aV/usr/share/fonts/type1/gsfonts/n021003l.afm
p640
aV/usr/share/fonts/X11/Type1/c0611bt_.afm
p641
aV/usr/share/fonts/type1/gsfonts/s050000l.afm
p642
aV/usr/share/fonts/type1/gsfonts/n021004l.afm
p643
aV/usr/share/fonts/type1/gsfonts/p052024l.afm
p644
aV/usr/share/fonts/X11/Type1/qtmri.afm
p645
aV/usr/share/fonts/X11/Type1/qbkb.afm
p646
aV/usr/share/fonts/type1/gsfonts/c059013l.afm
p647
aV/usr/share/fonts/X11/Type1/qtmr.afm
p648
aV/usr/share/fonts/X11/Type1/lmtcsc10.afm
p649
aV/usr/share/fonts/type1/texlive-fonts-recommended/putb8a.afm
p650
aV/usr/share/fonts/X11/Type1/qagb.afm
p651
aV/usr/share/fonts/X11/Type1/c0633bt_.afm
p652
aV/usr/share/fonts/X11/Type1/lmvtto10.afm
p653
aV/usr/share/fonts/type1/texlive-fonts-recommended/pcrbo8a.afm
p654
aV/usr/share/fonts/X11/Type1/c0649bt_.afm
p655
aV/usr/share/fonts/X11/Type1/lmss10.afm
p656
aV/usr/share/fonts/X11/Type1/lmvtt10.afm
p657
aV/usr/share/fonts/type1/gsfonts/b018035l.afm
p658
aV/usr/share/fonts/X11/Type1/lmduno10.afm
p659
aV/usr/share/fonts/X11/Type1/qtmbi.afm
p660
aV/usr/share/fonts/X11/Type1/qcsbi.afm
p661
aV/usr/share/fonts/X11/Type1/qtmb.afm
p662
aV/usr/share/fonts/type1/gsfonts/n022004l.afm
p663
aV/usr/share/fonts/X11/Type1/qhvcbi.afm
p664
aV/usr/share/fonts/type1/texlive-fonts-recommended/putbi8a.afm
p665
aV/usr/share/fonts/X11/Type1/lmri10.afm
p666
aV/usr/share/fonts/type1/gsfonts/n019004l.afm
p667
aV/usr/share/fonts/X11/Type1/lmr10.afm
p668
aV/usr/share/fonts/type1/gsfonts/a010015l.afm
p669
aV/usr/share/fonts/type1/texlive-fonts-recommended/pcrb8a.afm
p670
aV/usr/share/fonts/X11/Type1/lmtl10.afm
p671
aV/usr/share/fonts/X11/Type1/qplri.afm
p672
aV/usr/share/fonts/X11/Type1/qagbi.afm
p673
aV/usr/share/fonts/X11/Type1/qhvcr.afm
p674
aV/usr/share/fonts/X11/Type1/lmtlco10.afm
p675
aV/usr/share/fonts/X11/Type1/lmtto10.afm
p676
aV/usr/share/fonts/X11/Type1/qplb.afm
p677
aV/usr/share/fonts/X11/Type1/c0648bt_.afm
p678
aV/usr/share/fonts/type1/gsfonts/n022003l.afm
p679
aV/usr/share/fonts/type1/gsfonts/a010033l.afm
p680
aV/usr/share/fonts/X11/Type1/lmvtko10.afm
p681
aV/usr/share/fonts/type1/texlive-fonts-recommended/bchri8a.afm
p682
aV/usr/share/fonts/type1/texlive-fonts-recommended/bchb8a.afm
p683
aV/usr/share/fonts/type1/gsfonts/n019043l.afm
p684
aV/usr/share/fonts/X11/Type1/qcrri.afm
p685
aV/usr/share/fonts/type1/gsfonts/n019064l.afm
p686
aV/usr/share/fonts/X11/Type1/c0582bt_.afm
p687
aV/usr/share/fonts/X11/Type1/lmssq8.afm
p688
aV/usr/share/fonts/X11/Type1/lmro10.afm
p689
aV/usr/share/fonts/type1/texlive-fonts-recommended/pcrr8a.afm
p690
aV/usr/share/fonts/X11/Type1/qagr.afm
p691
aV/usr/share/fonts/type1/gsfonts/c059033l.afm
p692
aV/usr/share/fonts/type1/texlive-fonts-recommended/bchr8a.afm
p693
aV/usr/share/fonts/type1/gsfonts/n019023l.afm
p694
aV/usr/share/fonts/X11/Type1/lmtko10.afm
p695
aV/usr/share/fonts/X11/Type1/qzcmi.afm
p696
aV/usr/share/fonts/X11/Type1/lmsso10.afm
p697
aV/usr/share/fonts/X11/Type1/lmbo10.afm
p698
aV/usr/share/fonts/type1/gsfonts/p052023l.afm
p699
aV/usr/share/fonts/X11/Type1/qplbi.afm
p700
aV/usr/share/fonts/X11/Type1/lmssdc10.afm
p701
aV/usr/share/fonts/type1/gsfonts/c059016l.afm
p702
aV/usr/share/fonts/type1/gsfonts/n022023l.afm
p703
aV/usr/share/fonts/X11/Type1/qhvcri.afm
p704
aV/usr/share/fonts/type1/gsfonts/a010035l.afm
p705
aV/usr/share/fonts/X11/Type1/qbkri.afm
p706
aV/usr/share/fonts/X11/Type1/c0632bt_.afm
p707
aV/usr/share/fonts/X11/Type1/lmu10.afm
p708
asS'afmlist'
p709
(lp710
g1
(g8
g3
NtRp711
(dp712
g11
Vitalic
p713
sg13
S'ITC Zapf Chancery'
p714
sg15
I500
sg16
Vnormal
p715
sg17
g715
sg18
g519
sg20
Vscalable
p716
sbag1
(g8
g3
NtRp717
(dp718
g11
g715
sg13
S'Helvetica'
p719
sg15
I200
sg16
g715
sg17
g715
sg18
g522
sg20
g716
sbag1
(g8
g3
NtRp720
(dp721
g11
g713
sg13
S'Utopia'
p722
sg15
I700
sg16
g715
sg17
g715
sg18
g523
sg20
g716
sbag1
(g8
g3
NtRp723
(dp724
g11
g713
sg13
S'Helvetica'
p725
sg15
I700
sg16
g715
sg17
g715
sg18
g524
sg20
g716
sbag1
(g8
g3
NtRp726
(dp727
g11
g713
sg13
S'Helvetica'
p728
sg15
I500
sg16
Vcondensed
p729
sg17
g715
sg18
g525
sg20
g716
sbag1
(g8
g3
NtRp730
(dp731
g11
g715
sg13
S'ITC Bookman'
p732
sg15
I600
sg16
g715
sg17
g715
sg18
g526
sg20
g716
sbag1
(g8
g3
NtRp733
(dp734
g11
g713
sg13
S'Courier'
p735
sg15
I700
sg16
g715
sg17
g715
sg18
g527
sg20
g716
sbag1
(g8
g3
NtRp736
(dp737
g11
g715
sg13
S'Helvetica'
p738
sg15
I700
sg16
g715
sg17
g715
sg18
g528
sg20
g716
sbag1
(g8
g3
NtRp739
(dp740
g11
g713
sg13
S'Times'
p741
sg15
I700
sg16
g715
sg17
g715
sg18
g529
sg20
g716
sbag1
(g8
g3
NtRp742
(dp743
g11
g715
sg13
S'Utopia'
p744
sg15
I400
sg16
g715
sg17
g715
sg18
g530
sg20
g716
sbag1
(g8
g3
NtRp745
(dp746
g11
g715
sg13
S'Helvetica'
p747
sg15
I500
sg16
g715
sg17
g715
sg18
g531
sg20
g716
sbag1
(g8
g3
NtRp748
(dp749
g11
g715
sg13
S'Courier'
p750
sg15
I500
sg16
g715
sg17
g715
sg18
g532
sg20
g716
sbag1
(g8
g3
NtRp751
(dp752
g11
g713
sg13
S'New Century Schoolbook'
p753
sg15
I500
sg16
g715
sg17
g715
sg18
g533
sg20
g716
sbag1
(g8
g3
NtRp754
(dp755
g11
g715
sg13
S'New Century Schoolbook'
p756
sg15
I700
sg16
g715
sg17
g715
sg18
g534
sg20
g716
sbag1
(g8
g3
NtRp757
(dp758
g11
g715
sg13
S'Courier'
p759
sg15
I700
sg16
g715
sg17
g715
sg18
g535
sg20
g716
sbag1
(g8
g3
NtRp760
(dp761
g11
g713
sg13
S'New Century Schoolbook'
p762
sg15
I700
sg16
g715
sg17
g715
sg18
g536
sg20
g716
sbag1
(g8
g3
NtRp763
(dp764
g11
g715
sg13
S'Computer Modern'
p765
sg15
I500
sg16
g715
sg17
g715
sg18
g537
sg20
g716
sbag1
(g8
g3
NtRp766
(dp767
g11
g715
sg13
S'Computer Modern'
p768
sg15
I500
sg16
g715
sg17
g715
sg18
g538
sg20
g716
sbag1
(g8
g3
NtRp769
(dp770
g11
g715
sg13
S'Symbol'
p771
sg15
I500
sg16
g715
sg17
g715
sg18
g539
sg20
g716
sbag1
(g8
g3
NtRp772
(dp773
g11
g715
sg13
S'Helvetica'
p774
sg15
I500
sg16
g729
sg17
g715
sg18
g540
sg20
g716
sbag1
(g8
g3
NtRp775
(dp776
g11
g713
sg13
S'Helvetica'
p777
sg15
I500
sg16
g715
sg17
g715
sg18
g541
sg20
g716
sbag1
(g8
g3
NtRp778
(dp779
g11
g715
sg13
S'Times'
p780
sg15
I500
sg16
g715
sg17
g715
sg18
g542
sg20
g716
sbag1
(g8
g3
NtRp781
(dp782
g11
g713
sg13
S'Helvetica'
p783
sg15
I500
sg16
g715
sg17
g715
sg18
g543
sg20
g716
sbag1
(g8
g3
NtRp784
(dp785
g11
g713
sg13
S'Palatino'
p786
sg15
I700
sg16
g715
sg17
g715
sg18
g544
sg20
g716
sbag1
(g8
g3
NtRp787
(dp788
g11
g713
sg13
S'Computer Modern'
p789
sg15
I500
sg16
g715
sg17
g715
sg18
g545
sg20
g716
sbag1
(g8
g3
NtRp790
(dp791
g11
g715
sg13
S'ITC Avant Garde Gothic'
p792
sg15
I400
sg16
g715
sg17
g715
sg18
g546
sg20
g716
sbag1
(g8
g3
NtRp793
(dp794
g11
g713
sg13
S'Courier'
p795
sg15
I700
sg16
g715
sg17
g715
sg18
g547
sg20
g716
sbag1
(g8
g3
NtRp796
(dp797
g11
g715
sg13
S'Utopia'
p798
sg15
I700
sg16
g715
sg17
g715
sg18
g548
sg20
g716
sbag1
(g8
g3
NtRp799
(dp800
g11
g713
sg13
S'Computer Modern'
p801
sg15
I500
sg16
g715
sg17
g715
sg18
g549
sg20
g716
sbag1
(g8
g3
NtRp802
(dp803
g11
g713
sg13
S'ITC Avant Garde Gothic'
p804
sg15
I400
sg16
g715
sg17
g715
sg18
g550
sg20
g716
sbag1
(g8
g3
NtRp805
(dp806
g11
g713
sg13
S'Helvetica'
p807
sg15
I700
sg16
g729
sg17
g715
sg18
g551
sg20
g716
sbag1
(g8
g3
NtRp808
(dp809
g11
g713
sg13
S'Helvetica'
p810
sg15
I700
sg16
g715
sg17
g715
sg18
g552
sg20
g716
sbag1
(g8
g3
NtRp811
(dp812
g11
g715
sg13
S'Computer Modern'
p813
sg15
I500
sg16
g715
sg17
g715
sg18
g553
sg20
g716
sbag1
(g8
g3
NtRp814
(dp815
g11
g715
sg13
S'Times'
p816
sg15
I700
sg16
g715
sg17
g715
sg18
g554
sg20
g716
sbag1
(g8
g3
NtRp817
(dp818
g11
g713
sg13
S'ITC Avant Garde Gothic'
p819
sg15
I600
sg16
g715
sg17
g715
sg18
g555
sg20
g716
sbag1
(g8
g3
NtRp820
(dp821
g11
g715
sg13
S'Symbol'
p822
sg15
I500
sg16
g715
sg17
g715
sg18
g556
sg20
g716
sbag1
(g8
g3
NtRp823
(dp824
g11
g713
sg13
S'Helvetica'
p825
sg15
I200
sg16
g715
sg17
g715
sg18
g557
sg20
g716
sbag1
(g8
g3
NtRp826
(dp827
g11
g715
sg13
S'Helvetica'
p828
sg15
I700
sg16
g715
sg17
g715
sg18
g558
sg20
g716
sbag1
(g8
g3
NtRp829
(dp830
g11
g715
sg13
S'Palatino'
p831
sg15
I700
sg16
g715
sg17
g715
sg18
g559
sg20
g716
sbag1
(g8
g3
NtRp832
(dp833
g11
g715
sg13
S'ITC Zapf Dingbats'
p834
sg15
I500
sg16
g715
sg17
g715
sg18
g560
sg20
g716
sbag1
(g8
g3
NtRp835
(dp836
g11
g713
sg13
S'Times'
p837
sg15
I500
sg16
g715
sg17
g715
sg18
g561
sg20
g716
sbag1
(g8
g3
NtRp838
(dp839
g11
g715
sg13
S'Palatino'
p840
sg15
I500
sg16
g715
sg17
g715
sg18
g562
sg20
g716
sbag1
(g8
g3
NtRp841
(dp842
g11
g715
sg13
S'ITC Bookman'
p843
sg15
I200
sg16
g715
sg17
g715
sg18
g563
sg20
g716
sbag1
(g8
g3
NtRp844
(dp845
g11
g715
sg13
S'Times'
p846
sg15
I500
sg16
g715
sg17
g715
sg18
g564
sg20
g716
sbag1
(g8
g3
NtRp847
(dp848
g11
g713
sg13
S'Courier'
p849
sg15
I500
sg16
g715
sg17
g715
sg18
g565
sg20
g716
sbag1
(g8
g3
NtRp850
(dp851
g11
g715
sg13
S'ZapfDingbats'
p852
sg15
I500
sg16
g715
sg17
g715
sg18
g566
sg20
g716
sbag1
(g8
g3
NtRp853
(dp854
g11
g715
sg13
S'Times'
p855
sg15
I700
sg16
g715
sg17
g715
sg18
g567
sg20
g716
sbag1
(g8
g3
NtRp856
(dp857
g11
g715
sg13
S'Helvetica'
p858
sg15
I500
sg16
g715
sg17
g715
sg18
g568
sg20
g716
sbag1
(g8
g3
NtRp859
(dp860
g11
g713
sg13
S'Palatino'
p861
sg15
I500
sg16
g715
sg17
g715
sg18
g569
sg20
g716
sbag1
(g8
g3
NtRp862
(dp863
g11
g713
sg13
S'Times'
p864
sg15
I700
sg16
g715
sg17
g715
sg18
g570
sg20
g716
sbag1
(g8
g3
NtRp865
(dp866
g11
g713
sg13
S'ITC Bookman'
p867
sg15
I200
sg16
g715
sg17
g715
sg18
g571
sg20
g716
sbag1
(g8
g3
NtRp868
(dp869
g11
g713
sg13
S'Courier'
p870
sg15
I500
sg16
g715
sg17
g715
sg18
g572
sg20
g716
sbag1
(g8
g3
NtRp871
(dp872
g11
g715
sg13
S'Courier'
p873
sg15
I700
sg16
g715
sg17
g715
sg18
g573
sg20
g716
sbag1
(g8
g3
NtRp874
(dp875
g11
g715
sg13
S'ITC Avant Garde Gothic'
p876
sg15
I600
sg16
g715
sg17
g715
sg18
g574
sg20
g716
sbag1
(g8
g3
NtRp877
(dp878
g11
g715
sg13
S'New Century Schoolbook'
p879
sg15
I500
sg16
g715
sg17
g715
sg18
g575
sg20
g716
sbag1
(g8
g3
NtRp880
(dp881
g11
g713
sg13
S'Times'
p882
sg15
I500
sg16
g715
sg17
g715
sg18
g576
sg20
g716
sbag1
(g8
g3
NtRp883
(dp884
g11
g713
sg13
S'ITC Bookman'
p885
sg15
I600
sg16
g715
sg17
g715
sg18
g577
sg20
g716
sbag1
(g8
g3
NtRp886
(dp887
g11
g713
sg13
S'Utopia'
p888
sg15
I400
sg16
g715
sg17
g715
sg18
g578
sg20
g716
sbag1
(g8
g3
NtRp889
(dp890
g11
g715
sg13
S'Courier'
p891
sg15
I500
sg16
g715
sg17
g715
sg18
g579
sg20
g716
sbag1
(g8
g3
NtRp892
(dp893
g11
g715
sg13
S'Helvetica'
p894
sg15
I700
sg16
g729
sg17
g715
sg18
g580
sg20
g716
sbag1
(g8
g3
NtRp895
(dp896
g11
g715
sg13
S'LMMono10'
p897
sg15
I400
sg16
g715
sg17
g715
sg18
g581
sg20
g716
sbag1
(g8
g3
NtRp898
(dp899
g11
g715
sg13
S'URW Palladio L'
p900
sg15
I700
sg16
g715
sg17
g715
sg18
g582
sg20
g716
sbag1
(g8
g3
NtRp901
(dp902
g11
g713
sg13
S'LMSansQuot8'
p903
sg15
I400
sg16
g715
sg17
g715
sg18
g583
sg20
g716
sbag1
(g8
g3
NtRp904
(dp905
g11
g715
sg13
S'URW Bookman L'
p906
sg15
I700
sg16
g715
sg17
g715
sg18
g584
sg20
g716
sbag1
(g8
g3
NtRp907
(dp908
g11
g713
sg13
S'LMRomanSlant10'
p909
sg15
I700
sg16
g715
sg17
g715
sg18
g585
sg20
g716
sbag1
(g8
g3
NtRp910
(dp911
g11
g713
sg13
S'Nimbus Mono L'
p912
sg15
I700
sg16
g715
sg17
g715
sg18
g587
sg20
g716
sbag1
(g8
g3
NtRp913
(dp914
g11
g715
sg13
S'LMMonoLtCond10'
p915
sg15
I200
sg16
g729
sg17
g715
sg18
g588
sg20
g716
sbag1
(g8
g3
NtRp916
(dp917
g11
g715
sg13
S'LMMonoLt10'
p918
sg15
I700
sg16
g715
sg17
g715
sg18
g589
sg20
g716
sbag1
(g8
g3
NtRp919
(dp920
g11
g715
sg13
S'TeXGyreBonum'
p921
sg15
I400
sg16
g715
sg17
g715
sg18
g590
sg20
g716
sbag1
(g8
g3
NtRp922
(dp923
g11
g715
sg13
S'LMRomanDunh10'
p924
sg15
I400
sg16
g715
sg17
g715
sg18
g591
sg20
g716
sbag1
(g8
g3
NtRp925
(dp926
g11
g715
sg13
S'Nimbus Sans L'
p927
sg15
I400
sg16
g715
sg17
g715
sg18
g592
sg20
g716
sbag1
(g8
g3
NtRp928
(dp929
g11
g713
sg13
S'TeXGyreSchola'
p930
sg15
I400
sg16
g715
sg17
g715
sg18
g593
sg20
g716
sbag1
(g8
g3
NtRp931
(dp932
g11
g713
sg13
S'LMMono10'
p933
sg15
I400
sg16
g715
sg17
g715
sg18
g594
sg20
g716
sbag1
(g8
g3
NtRp934
(dp935
g11
g715
sg13
S'TeXGyreCursor'
p936
sg15
I400
sg16
g715
sg17
g715
sg18
g595
sg20
g716
sbag1
(g8
g3
NtRp937
(dp938
g11
g713
sg13
S'Century Schoolbook L'
p939
sg15
I700
sg16
g715
sg17
g715
sg18
g596
sg20
g716
sbag1
(g8
g3
NtRp940
(dp941
g11
g715
sg13
S'TeXGyreHerosCondensed'
p942
sg15
I700
sg16
g729
sg17
g715
sg18
g598
sg20
g716
sbag1
(g8
g3
NtRp943
(dp944
g11
g715
sg13
S'LMSans10'
p945
sg15
I700
sg16
g715
sg17
g715
sg18
g599
sg20
g716
sbag1
(g8
g3
NtRp946
(dp947
g11
g713
sg13
S'LMMonoPropLt10'
p948
sg15
I200
sg16
g715
sg17
g715
sg18
g600
sg20
g716
sbag1
(g8
g3
NtRp949
(dp950
g11
g713
sg13
S'LMMonoCaps10'
p951
sg15
I400
sg16
g715
sg17
g715
sg18
g601
sg20
g716
sbag1
(g8
g3
NtRp952
(dp953
g11
g713
sg13
S'Nimbus Sans L'
p954
sg15
I400
sg16
g729
sg17
g715
sg18
g602
sg20
g716
sbag1
(g8
g3
NtRp955
(dp956
g11
g715
sg13
S'Courier 10 Pitch'
p957
sg15
I400
sg16
g715
sg17
g715
sg18
g603
sg20
g716
sbag1
(g8
g3
NtRp958
(dp959
g11
g713
sg13
S'Nimbus Roman No9 L'
p960
sg15
I700
sg16
g715
sg17
g715
sg18
g604
sg20
g716
sbag1
(g8
g3
NtRp961
(dp962
g11
g713
sg13
S'Nimbus Sans L'
p963
sg15
I700
sg16
g715
sg17
g715
sg18
g605
sg20
g716
sbag1
(g8
g3
NtRp964
(dp965
g11
g713
sg13
S'TeXGyreHeros'
p966
sg15
I700
sg16
g715
sg17
g715
sg18
g606
sg20
g716
sbag1
(g8
g3
NtRp967
(dp968
g11
g715
sg13
S'TeXGyreSchola'
p969
sg15
I700
sg16
g715
sg17
g715
sg18
g607
sg20
g716
sbag1
(g8
g3
NtRp970
(dp971
g11
g715
sg13
S'LMRoman10'
p972
sg15
I700
sg16
g715
sg17
g715
sg18
g608
sg20
g716
sbag1
(g8
g3
NtRp973
(dp974
g11
g715
sg13
S'Dingbats'
p975
sg15
I400
sg16
g715
sg17
g715
sg18
g609
sg20
g716
sbag1
(g8
g3
NtRp976
(dp977
g11
g713
sg13
S'LMSansDemiCond10'
p978
sg15
I600
sg16
g729
sg17
g715
sg18
g610
sg20
g716
sbag1
(g8
g3
NtRp979
(dp980
g11
g715
sg13
S'LMSansQuot8'
p981
sg15
I700
sg16
g715
sg17
g715
sg18
g611
sg20
g716
sbag1
(g8
g3
NtRp982
(dp983
g11
g715
sg13
S'TeXGyreHeros'
p984
sg15
I700
sg16
g715
sg17
g715
sg18
g612
sg20
g716
sbag1
(g8
g3
NtRp985
(dp986
g11
g715
sg13
S'LMRomanDemi10'
p987
sg15
I600
sg16
g715
sg17
g715
sg18
g613
sg20
g716
sbag1
(g8
g3
NtRp988
(dp989
g11
g715
sg13
S'Nimbus Sans L'
p990
sg15
I700
sg16
g729
sg17
g715
sg18
g614
sg20
g716
sbag1
(g8
g3
NtRp991
(dp992
g11
g713
sg13
S'URW Chancery L'
p993
sg15
I500
sg16
g715
sg17
g715
sg18
g615
sg20
g716
sbag1
(g8
g3
NtRp994
(dp995
g11
g715
sg13
S'TeXGyreHeros'
p996
sg15
I400
sg16
g715
sg17
g715
sg18
g616
sg20
g716
sbag1
(g8
g3
NtRp997
(dp998
g11
g713
sg13
S'LMRoman10'
p999
sg15
I700
sg16
g715
sg17
g715
sg18
g617
sg20
g716
sbag1
(g8
g3
NtRp1000
(dp1001
g11
g713
sg13
S'LMRomanCaps10'
p1002
sg15
I400
sg16
g715
sg17
g715
sg18
g618
sg20
g716
sbag1
(g8
g3
NtRp1003
(dp1004
g11
g715
sg13
S'URW Bookman L'
p1005
sg15
I400
sg16
g715
sg17
g715
sg18
g620
sg20
g716
sbag1
(g8
g3
NtRp1006
(dp1007
g11
g713
sg13
S'LMSans10'
p1008
sg15
I700
sg16
g715
sg17
g715
sg18
g621
sg20
g716
sbag1
(g8
g3
NtRp1009
(dp1010
g11
g715
sg13
S'TeXGyrePagella'
p1011
sg15
I400
sg16
g715
sg17
g715
sg18
g622
sg20
g716
sbag1
(g8
g3
NtRp1012
(dp1013
g11
g715
sg13
S'TeXGyreSchola'
p1014
sg15
I400
sg16
g715
sg17
g715
sg18
g623
sg20
g716
sbag1
(g8
g3
NtRp1015
(dp1016
g11
g715
sg13
S'URW Gothic L'
p1017
sg15
I400
sg16
g715
sg17
g715
sg18
g624
sg20
g716
sbag1
(g8
g3
NtRp1018
(dp1019
g11
g715
sg13
S'Courier 10 Pitch'
p1020
sg15
I700
sg16
g715
sg17
g715
sg18
g625
sg20
g716
sbag1
(g8
g3
NtRp1021
(dp1022
g11
g713
sg13
S'TeXGyreAdventor'
p1023
sg15
I400
sg16
g715
sg17
g715
sg18
g626
sg20
g716
sbag1
(g8
g3
NtRp1024
(dp1025
g11
g713
sg13
S'TeXGyreBonum'
p1026
sg15
I700
sg16
g715
sg17
g715
sg18
g627
sg20
g716
sbag1
(g8
g3
NtRp1027
(dp1028
g11
g713
sg13
S'Bitstream Charter'
p1029
sg15
I700
sg16
g715
sg17
g715
sg18
g628
sg20
g716
sbag1
(g8
g3
NtRp1030
(dp1031
g11
g715
sg13
S'LMRomanCaps10'
p1032
sg15
I400
sg16
g715
sg17
g715
sg18
g629
sg20
g716
sbag1
(g8
g3
NtRp1033
(dp1034
g11
g713
sg13
S'TeXGyreCursor'
p1035
sg15
I700
sg16
g715
sg17
g715
sg18
g630
sg20
g716
sbag1
(g8
g3
NtRp1036
(dp1037
g11
g715
sg13
S'TeXGyreCursor'
p1038
sg15
I700
sg16
g715
sg17
g715
sg18
g631
sg20
g716
sbag1
(g8
g3
NtRp1039
(dp1040
g11
g713
sg13
S'LMSansQuot8'
p1041
sg15
I700
sg16
g715
sg17
g715
sg18
g632
sg20
g716
sbag1
(g8
g3
NtRp1042
(dp1043
g11
g715
sg13
S'URW Palladio L'
p1044
sg15
I500
sg16
g715
sg17
g715
sg18
g633
sg20
g716
sbag1
(g8
g3
NtRp1045
(dp1046
g11
g713
sg13
S'URW Bookman L'
p1047
sg15
I400
sg16
g715
sg17
g715
sg18
g634
sg20
g716
sbag1
(g8
g3
NtRp1048
(dp1049
g11
g715
sg13
S'LMMonoPropLt10'
p1050
sg15
I700
sg16
g715
sg17
g715
sg18
g635
sg20
g716
sbag1
(g8
g3
NtRp1051
(dp1052
g11
g713
sg13
S'Nimbus Roman No9 L'
p1053
sg15
I400
sg16
g715
sg17
g715
sg18
g636
sg20
g716
sbag1
(g8
g3
NtRp1054
(dp1055
g11
g713
sg13
S'TeXGyreHeros'
p1056
sg15
I400
sg16
g715
sg17
g715
sg18
g637
sg20
g716
sbag1
(g8
g3
NtRp1057
(dp1058
g11
g713
sg13
S'LMMonoLt10'
p1059
sg15
I200
sg16
g715
sg17
g715
sg18
g638
sg20
g716
sbag1
(g8
g3
NtRp1060
(dp1061
g11
g715
sg13
S'LMMonoPropLt10'
p1062
sg15
I200
sg16
g715
sg17
g715
sg18
g639
sg20
g716
sbag1
(g8
g3
NtRp1063
(dp1064
g11
g715
sg13
S'Nimbus Roman No9 L'
p1065
sg15
I400
sg16
g715
sg17
g715
sg18
g640
sg20
g716
sbag1
(g8
g3
NtRp1066
(dp1067
g11
g713
sg13
S'Courier 10 Pitch'
p1068
sg15
I700
sg16
g715
sg17
g715
sg18
g641
sg20
g716
sbag1
(g8
g3
NtRp1069
(dp1070
g11
g715
sg13
S'Standard Symbols L'
p1071
sg15
I400
sg16
g715
sg17
g715
sg18
g642
sg20
g716
sbag1
(g8
g3
NtRp1072
(dp1073
g11
g715
sg13
S'Nimbus Roman No9 L'
p1074
sg15
I700
sg16
g715
sg17
g715
sg18
g643
sg20
g716
sbag1
(g8
g3
NtRp1075
(dp1076
g11
g713
sg13
S'URW Palladio L'
p1077
sg15
I700
sg16
g715
sg17
g715
sg18
g644
sg20
g716
sbag1
(g8
g3
NtRp1078
(dp1079
g11
g713
sg13
S'TeXGyreTermes'
p1080
sg15
I400
sg16
g715
sg17
g715
sg18
g645
sg20
g716
sbag1
(g8
g3
NtRp1081
(dp1082
g11
g715
sg13
S'TeXGyreBonum'
p1083
sg15
I700
sg16
g715
sg17
g715
sg18
g646
sg20
g716
sbag1
(g8
g3
NtRp1084
(dp1085
g11
g715
sg13
S'Century Schoolbook L'
p1086
sg15
I500
sg16
g715
sg17
g715
sg18
g647
sg20
g716
sbag1
(g8
g3
NtRp1087
(dp1088
g11
g715
sg13
S'TeXGyreTermes'
p1089
sg15
I400
sg16
g715
sg17
g715
sg18
g648
sg20
g716
sbag1
(g8
g3
NtRp1090
(dp1091
g11
g715
sg13
S'LMMonoCaps10'
p1092
sg15
I400
sg16
g715
sg17
g715
sg18
g649
sg20
g716
sbag1
(g8
g3
NtRp1093
(dp1094
g11
g715
sg13
S'TeXGyreAdventor'
p1095
sg15
I700
sg16
g715
sg17
g715
sg18
g651
sg20
g716
sbag1
(g8
g3
NtRp1096
(dp1097
g11
g713
sg13
S'Bitstream Charter'
p1098
sg15
I700
sg16
g715
sg17
g715
sg18
g652
sg20
g716
sbag1
(g8
g3
NtRp1099
(dp1100
g11
g713
sg13
S'LMMonoProp10'
p1101
sg15
I400
sg16
g715
sg17
g715
sg18
g653
sg20
g716
sbag1
(g8
g3
NtRp1102
(dp1103
g11
g713
sg13
S'Bitstream Charter'
p1104
sg15
I400
sg16
g715
sg17
g715
sg18
g655
sg20
g716
sbag1
(g8
g3
NtRp1105
(dp1106
g11
g715
sg13
S'LMSans10'
p1107
sg15
I400
sg16
g715
sg17
g715
sg18
g656
sg20
g716
sbag1
(g8
g3
NtRp1108
(dp1109
g11
g715
sg13
S'LMMonoProp10'
p1110
sg15
I400
sg16
g715
sg17
g715
sg18
g657
sg20
g716
sbag1
(g8
g3
NtRp1111
(dp1112
g11
g713
sg13
S'URW Bookman L'
p1113
sg15
I700
sg16
g715
sg17
g715
sg18
g658
sg20
g716
sbag1
(g8
g3
NtRp1114
(dp1115
g11
g713
sg13
S'LMRomanDunh10'
p1116
sg15
I400
sg16
g715
sg17
g715
sg18
g659
sg20
g716
sbag1
(g8
g3
NtRp1117
(dp1118
g11
g713
sg13
S'TeXGyreTermes'
p1119
sg15
I700
sg16
g715
sg17
g715
sg18
g660
sg20
g716
sbag1
(g8
g3
NtRp1120
(dp1121
g11
g713
sg13
S'TeXGyreSchola'
p1122
sg15
I400
sg16
g715
sg17
g715
sg18
g661
sg20
g716
sbag1
(g8
g3
NtRp1123
(dp1124
g11
g715
sg13
S'TeXGyreTermes'
p1125
sg15
I700
sg16
g715
sg17
g715
sg18
g662
sg20
g716
sbag1
(g8
g3
NtRp1126
(dp1127
g11
g715
sg13
S'Nimbus Mono L'
p1128
sg15
I700
sg16
g715
sg17
g715
sg18
g663
sg20
g716
sbag1
(g8
g3
NtRp1129
(dp1130
g11
g713
sg13
S'TeXGyreHerosCondensed'
p1131
sg15
I700
sg16
g729
sg17
g715
sg18
g664
sg20
g716
sbag1
(g8
g3
NtRp1132
(dp1133
g11
g713
sg13
S'LMRoman10'
p1134
sg15
I400
sg16
g715
sg17
g715
sg18
g666
sg20
g716
sbag1
(g8
g3
NtRp1135
(dp1136
g11
g715
sg13
S'Nimbus Sans L'
p1137
sg15
I700
sg16
g715
sg17
g715
sg18
g667
sg20
g716
sbag1
(g8
g3
NtRp1138
(dp1139
g11
g715
sg13
S'LMRoman10'
p1140
sg15
I400
sg16
g715
sg17
g715
sg18
g668
sg20
g716
sbag1
(g8
g3
NtRp1141
(dp1142
g11
g715
sg13
S'URW Gothic L'
p1143
sg15
I600
sg16
g715
sg17
g715
sg18
g669
sg20
g716
sbag1
(g8
g3
NtRp1144
(dp1145
g11
g715
sg13
S'LMMonoLt10'
p1146
sg15
I200
sg16
g715
sg17
g715
sg18
g671
sg20
g716
sbag1
(g8
g3
NtRp1147
(dp1148
g11
g713
sg13
S'TeXGyrePagella'
p1149
sg15
I400
sg16
g715
sg17
g715
sg18
g672
sg20
g716
sbag1
(g8
g3
NtRp1150
(dp1151
g11
g713
sg13
S'TeXGyreAdventor'
p1152
sg15
I700
sg16
g715
sg17
g715
sg18
g673
sg20
g716
sbag1
(g8
g3
NtRp1153
(dp1154
g11
g715
sg13
S'TeXGyreHerosCondensed'
p1155
sg15
I400
sg16
g729
sg17
g715
sg18
g674
sg20
g716
sbag1
(g8
g3
NtRp1156
(dp1157
g11
g713
sg13
S'LMMonoLtCond10'
p1158
sg15
I200
sg16
g729
sg17
g715
sg18
g675
sg20
g716
sbag1
(g8
g3
NtRp1159
(dp1160
g11
g713
sg13
S'LMMonoSlant10'
p1161
sg15
I400
sg16
g715
sg17
g715
sg18
g676
sg20
g716
sbag1
(g8
g3
NtRp1162
(dp1163
g11
g715
sg13
S'TeXGyrePagella'
p1164
sg15
I700
sg16
g715
sg17
g715
sg18
g677
sg20
g716
sbag1
(g8
g3
NtRp1165
(dp1166
g11
g715
sg13
S'Bitstream Charter'
p1167
sg15
I400
sg16
g715
sg17
g715
sg18
g678
sg20
g716
sbag1
(g8
g3
NtRp1168
(dp1169
g11
g715
sg13
S'Nimbus Mono L'
p1170
sg15
I400
sg16
g715
sg17
g715
sg18
g679
sg20
g716
sbag1
(g8
g3
NtRp1171
(dp1172
g11
g713
sg13
S'URW Gothic L'
p1173
sg15
I400
sg16
g715
sg17
g715
sg18
g680
sg20
g716
sbag1
(g8
g3
NtRp1174
(dp1175
g11
g713
sg13
S'LMMonoPropLt10'
p1176
sg15
I700
sg16
g715
sg17
g715
sg18
g681
sg20
g716
sbag1
(g8
g3
NtRp1177
(dp1178
g11
g713
sg13
S'Bitstream Charter'
p1179
sg15
I400
sg16
g715
sg17
g715
sg18
g682
sg20
g716
sbag1
(g8
g3
NtRp1180
(dp1181
g11
g715
sg13
S'Bitstream Charter'
p1182
sg15
I700
sg16
g715
sg17
g715
sg18
g683
sg20
g716
sbag1
(g8
g3
NtRp1183
(dp1184
g11
g715
sg13
S'Nimbus Sans L'
p1185
sg15
I400
sg16
g729
sg17
g715
sg18
g684
sg20
g716
sbag1
(g8
g3
NtRp1186
(dp1187
g11
g713
sg13
S'TeXGyreCursor'
p1188
sg15
I400
sg16
g715
sg17
g715
sg18
g685
sg20
g716
sbag1
(g8
g3
NtRp1189
(dp1190
g11
g713
sg13
S'Nimbus Sans L'
p1191
sg15
I700
sg16
g729
sg17
g715
sg18
g686
sg20
g716
sbag1
(g8
g3
NtRp1192
(dp1193
g11
g713
sg13
S'Courier 10 Pitch'
p1194
sg15
I400
sg16
g715
sg17
g715
sg18
g687
sg20
g716
sbag1
(g8
g3
NtRp1195
(dp1196
g11
g715
sg13
S'LMSansQuot8'
p1197
sg15
I400
sg16
g715
sg17
g715
sg18
g688
sg20
g716
sbag1
(g8
g3
NtRp1198
(dp1199
g11
g713
sg13
S'LMRomanSlant10'
p1200
sg15
I400
sg16
g715
sg17
g715
sg18
g689
sg20
g716
sbag1
(g8
g3
NtRp1201
(dp1202
g11
g715
sg13
S'TeXGyreAdventor'
p1203
sg15
I400
sg16
g715
sg17
g715
sg18
g691
sg20
g716
sbag1
(g8
g3
NtRp1204
(dp1205
g11
g713
sg13
S'Century Schoolbook L'
p1206
sg15
I400
sg16
g715
sg17
g715
sg18
g692
sg20
g716
sbag1
(g8
g3
NtRp1207
(dp1208
g11
g715
sg13
S'Bitstream Charter'
p1209
sg15
I400
sg16
g715
sg17
g715
sg18
g693
sg20
g716
sbag1
(g8
g3
NtRp1210
(dp1211
g11
g713
sg13
S'Nimbus Sans L'
p1212
sg15
I400
sg16
g715
sg17
g715
sg18
g694
sg20
g716
sbag1
(g8
g3
NtRp1213
(dp1214
g11
g713
sg13
S'LMMonoLt10'
p1215
sg15
I700
sg16
g715
sg17
g715
sg18
g695
sg20
g716
sbag1
(g8
g3
NtRp1216
(dp1217
g11
g713
sg13
S'TeXGyreChorus'
p1218
sg15
I500
sg16
g715
sg17
g715
sg18
g696
sg20
g716
sbag1
(g8
g3
NtRp1219
(dp1220
g11
g713
sg13
S'LMSans10'
p1221
sg15
I400
sg16
g715
sg17
g715
sg18
g697
sg20
g716
sbag1
(g8
g3
NtRp1222
(dp1223
g11
g713
sg13
S'LMRomanDemi10'
p1224
sg15
I600
sg16
g715
sg17
g715
sg18
g698
sg20
g716
sbag1
(g8
g3
NtRp1225
(dp1226
g11
g713
sg13
S'URW Palladio L'
p1227
sg15
I400
sg16
g715
sg17
g715
sg18
g699
sg20
g716
sbag1
(g8
g3
NtRp1228
(dp1229
g11
g713
sg13
S'TeXGyrePagella'
p1230
sg15
I700
sg16
g715
sg17
g715
sg18
g700
sg20
g716
sbag1
(g8
g3
NtRp1231
(dp1232
g11
g715
sg13
S'LMSansDemiCond10'
p1233
sg15
I600
sg16
g729
sg17
g715
sg18
g701
sg20
g716
sbag1
(g8
g3
NtRp1234
(dp1235
g11
g715
sg13
S'Century Schoolbook L'
p1236
sg15
I700
sg16
g715
sg17
g715
sg18
g702
sg20
g716
sbag1
(g8
g3
NtRp1237
(dp1238
g11
g713
sg13
S'Nimbus Mono L'
p1239
sg15
I400
sg16
g715
sg17
g715
sg18
g703
sg20
g716
sbag1
(g8
g3
NtRp1240
(dp1241
g11
g713
sg13
S'TeXGyreHerosCondensed'
p1242
sg15
I400
sg16
g729
sg17
g715
sg18
g704
sg20
g716
sbag1
(g8
g3
NtRp1243
(dp1244
g11
g713
sg13
S'URW Gothic L'
p1245
sg15
I600
sg16
g715
sg17
g715
sg18
g705
sg20
g716
sbag1
(g8
g3
NtRp1246
(dp1247
g11
g713
sg13
S'TeXGyreBonum'
p1248
sg15
I400
sg16
g715
sg17
g715
sg18
g706
sg20
g716
sbag1
(g8
g3
NtRp1249
(dp1250
g11
g715
sg13
S'Bitstream Charter'
p1251
sg15
I700
sg16
g715
sg17
g715
sg18
g707
sg20
g716
sbag1
(g8
g3
NtRp1252
(dp1253
g11
g715
sg13
S'LMRomanUnsl10'
p1254
sg15
I400
sg16
g715
sg17
g715
sg18
g708
sg20
g716
sbasb.